(dp1
S'layout'
p2
(ilayout
Layout
p3
(dp4
S'capsules'
p5
(lp6
(I6
I5
tp7
a(I25
I10
tp8
asS'numGhosts'
p9
I4
sS'food'
p10
(igame
Grid
p11
(dp12
S'CELLS_PER_INT'
p13
I30
sS'width'
p14
I32
sS'data'
p15
(lp16
(lp17
I00
aI00
aI00
aI00
aI00
aI00
aI00
aI00
aI00
aI00
aI00
aI00
aI00
aI00
aI00
aI00
aa(lp18
I00
aI00
aI00
aI00
aI00
aI00
aI00
aI00
aI00
aI00
aI00
aI00
aI00
aI00
aI00
aI00
aa(lp19
I00
aI00
aI00
aI00
aI00
aI00
aI00
aI00
aI00
aI00
aI00
aI00
aI00
aI00
aI00
aI00
aa(lp20
I00
aI01
aI01
aI00
aI00
aI00
aI00
aI00
aI01
aI00
aI00
aI00
aI00
aI00
aI00
aI00
aa(lp21
I00
aI00
aI00
aI00
aI00
aI00
aI00
aI00
aI00
aI00
aI00
aI00
aI00
aI00
aI00
aI00
aa(lp22
I00
aI01
aI00
aI00
aI00
aI00
aI00
aI00
aI00
aI00
aI00
aI00
aI01
aI00
aI01
aI00
aa(lp23
I00
aI00
aI00
aI00
aI00
aI00
aI00
aI00
aI00
aI00
aI00
aI00
aI00
aI00
aI00
aI00
aa(lp24
I00
aI00
aI00
aI01
aI00
aI00
aI00
aI00
aI01
aI01
aI00
aI00
aI00
aI00
aI00
aI00
aa(lp25
I00
aI00
aI00
aI01
aI00
aI00
aI00
aI00
aI00
aI01
aI00
aI00
aI00
aI00
aI01
aI00
aa(lp26
I00
aI00
aI00
aI00
aI00
aI01
aI00
aI00
aI00
aI00
aI00
aI01
aI00
aI00
aI00
aI00
aa(lp27
I00
aI00
aI00
aI01
aI00
aI00
aI00
aI01
aI00
aI01
aI00
aI01
aI00
aI00
aI01
aI00
aa(lp28
I00
aI00
aI00
aI00
aI00
aI00
aI00
aI00
aI00
aI00
aI00
aI00
aI00
aI00
aI00
aI00
aa(lp29
I00
aI00
aI00
aI00
aI00
aI00
aI00
aI00
aI00
aI00
aI00
aI00
aI00
aI00
aI00
aI00
aa(lp30
I00
aI00
aI00
aI00
aI00
aI00
aI00
aI00
aI00
aI00
aI00
aI00
aI00
aI00
aI00
aI00
aa(lp31
I00
aI00
aI00
aI00
aI00
aI00
aI00
aI00
aI00
aI01
aI00
aI00
aI00
aI00
aI00
aI00
aa(lp32
I00
aI00
aI00
aI00
aI00
aI00
aI00
aI00
aI00
aI00
aI00
aI00
aI00
aI00
aI00
aI00
aa(lp33
I00
aI00
aI00
aI00
aI00
aI00
aI00
aI00
aI00
aI00
aI00
aI00
aI00
aI00
aI00
aI00
aa(lp34
I00
aI00
aI00
aI00
aI00
aI00
aI01
aI00
aI00
aI00
aI00
aI00
aI00
aI00
aI00
aI00
aa(lp35
I00
aI00
aI00
aI00
aI00
aI00
aI00
aI00
aI00
aI00
aI00
aI00
aI00
aI00
aI00
aI00
aa(lp36
I00
aI00
aI00
aI00
aI00
aI00
aI00
aI00
aI00
aI00
aI00
aI00
aI00
aI00
aI00
aI00
aa(lp37
I00
aI00
aI00
aI00
aI00
aI00
aI00
aI00
aI00
aI00
aI00
aI00
aI00
aI00
aI00
aI00
aa(lp38
I00
aI01
aI00
aI00
aI01
aI00
aI01
aI00
aI01
aI00
aI00
aI00
aI01
aI00
aI00
aI00
aa(lp39
I00
aI00
aI00
aI00
aI01
aI00
aI00
aI00
aI00
aI00
aI01
aI00
aI00
aI00
aI00
aI00
aa(lp40
I00
aI01
aI00
aI00
aI00
aI00
aI01
aI00
aI00
aI00
aI00
aI00
aI01
aI00
aI00
aI00
aa(lp41
I00
aI00
aI00
aI00
aI00
aI00
aI01
aI01
aI00
aI00
aI00
aI00
aI01
aI00
aI00
aI00
aa(lp42
I00
aI00
aI00
aI00
aI00
aI00
aI00
aI00
aI00
aI00
aI00
aI00
aI00
aI00
aI00
aI00
aa(lp43
I00
aI01
aI00
aI01
aI00
aI00
aI00
aI00
aI00
aI00
aI00
aI00
aI00
aI00
aI01
aI00
aa(lp44
I00
aI00
aI00
aI00
aI00
aI00
aI00
aI00
aI00
aI00
aI00
aI00
aI00
aI00
aI00
aI00
aa(lp45
I00
aI00
aI00
aI00
aI00
aI00
aI00
aI01
aI00
aI00
aI00
aI00
aI00
aI01
aI01
aI00
aa(lp46
I00
aI00
aI00
aI00
aI00
aI00
aI00
aI00
aI00
aI00
aI00
aI00
aI00
aI00
aI00
aI00
aa(lp47
I00
aI00
aI00
aI00
aI00
aI00
aI00
aI00
aI00
aI00
aI00
aI00
aI00
aI00
aI00
aI00
aa(lp48
I00
aI00
aI00
aI00
aI00
aI00
aI00
aI00
aI00
aI00
aI00
aI00
aI00
aI00
aI00
aI00
aasS'height'
p49
I16
sbsS'agentPositions'
p50
(lp51
(I00
(I1
I2
tp52
tp53
a(I00
(I30
I13
tp54
tp55
a(I00
(I1
I1
tp56
tp57
a(I00
(I30
I14
tp58
tp59
asg49
I16
sg14
I32
sS'walls'
p60
(igame
Grid
p61
(dp62
g13
I30
sg14
I32
sg15
(lp63
(lp64
I01
aI01
aI01
aI01
aI01
aI01
aI01
aI01
aI01
aI01
aI01
aI01
aI01
aI01
aI01
aI01
aa(lp65
I01
aI00
aI00
aI00
aI00
aI00
aI00
aI00
aI00
aI00
aI00
aI00
aI00
aI00
aI00
aI01
aa(lp66
I01
aI01
aI01
aI01
aI01
aI01
aI01
aI01
aI01
aI01
aI01
aI01
aI01
aI01
aI00
aI01
aa(lp67
I01
aI00
aI00
aI00
aI00
aI00
aI00
aI01
aI00
aI01
aI00
aI00
aI00
aI00
aI00
aI01
aa(lp68
I01
aI01
aI01
aI01
aI01
aI01
aI00
aI00
aI00
aI00
aI00
aI01
aI01
aI01
aI01
aI01
aa(lp69
I01
aI00
aI00
aI00
aI00
aI00
aI00
aI00
aI01
aI01
aI00
aI01
aI00
aI01
aI00
aI01
aa(lp70
I01
aI01
aI00
aI01
aI01
aI00
aI01
aI01
aI01
aI00
aI00
aI00
aI00
aI00
aI00
aI01
aa(lp71
I01
aI00
aI00
aI00
aI01
aI00
aI00
aI01
aI00
aI00
aI01
aI01
aI01
aI00
aI01
aI01
aa(lp72
I01
aI00
aI01
aI00
aI01
aI01
aI00
aI01
aI01
aI00
aI01
aI00
aI00
aI00
aI00
aI01
aa(lp73
I01
aI00
aI01
aI01
aI01
aI00
aI00
aI01
aI01
aI01
aI01
aI00
aI01
aI00
aI01
aI01
aa(lp74
I01
aI00
aI01
aI00
aI01
aI01
aI00
aI00
aI01
aI00
aI01
aI00
aI01
aI00
aI00
aI01
aa(lp75
I01
aI00
aI00
aI00
aI00
aI01
aI00
aI01
aI01
aI00
aI01
aI01
aI01
aI00
aI01
aI01
aa(lp76
I01
aI01
aI00
aI01
aI00
aI01
aI00
aI00
aI00
aI00
aI00
aI00
aI00
aI00
aI00
aI01
aa(lp77
I01
aI00
aI00
aI01
aI00
aI00
aI00
aI00
aI00
aI01
aI01
aI01
aI00
aI01
aI00
aI01
aa(lp78
I01
aI00
aI01
aI01
aI01
aI00
aI01
aI00
aI00
aI00
aI01
aI00
aI00
aI01
aI00
aI01
aa(lp79
I01
aI00
aI00
aI01
aI00
aI00
aI01
aI00
aI00
aI01
aI01
aI00
aI00
aI00
aI00
aI01
aa(lp80
I01
aI00
aI00
aI00
aI00
aI01
aI01
aI00
aI00
aI01
aI00
aI00
aI01
aI00
aI00
aI01
aa(lp81
I01
aI00
aI01
aI00
aI00
aI01
aI00
aI00
aI00
aI01
aI00
aI01
aI01
aI01
aI00
aI01
aa(lp82
I01
aI00
aI01
aI00
aI01
aI01
aI01
aI00
aI00
aI00
aI00
aI00
aI01
aI00
aI00
aI01
aa(lp83
I01
aI00
aI00
aI00
aI00
aI00
aI00
aI00
aI00
aI00
aI01
aI00
aI01
aI00
aI01
aI01
aa(lp84
I01
aI01
aI00
aI01
aI01
aI01
aI00
aI01
aI01
aI00
aI01
aI00
aI00
aI00
aI00
aI01
aa(lp85
I01
aI00
aI00
aI01
aI00
aI01
aI00
aI01
aI00
aI00
aI01
aI01
aI00
aI01
aI00
aI01
aa(lp86
I01
aI01
aI00
aI01
aI00
aI01
aI01
aI01
aI01
aI00
aI00
aI01
aI01
aI01
aI00
aI01
aa(lp87
I01
aI00
aI00
aI00
aI00
aI01
aI00
aI01
aI01
aI00
aI01
aI01
aI00
aI01
aI00
aI01
aa(lp88
I01
aI01
aI00
aI01
aI01
aI01
aI00
aI00
aI01
aI00
aI00
aI01
aI00
aI00
aI00
aI01
aa(lp89
I01
aI00
aI00
aI00
aI00
aI00
aI00
aI01
aI01
aI01
aI00
aI01
aI01
aI00
aI01
aI01
aa(lp90
I01
aI00
aI01
aI00
aI01
aI00
aI01
aI01
aI00
aI00
aI00
aI00
aI00
aI00
aI00
aI01
aa(lp91
I01
aI01
aI01
aI01
aI01
aI00
aI00
aI00
aI00
aI00
aI01
aI01
aI01
aI01
aI01
aI01
aa(lp92
I01
aI00
aI00
aI00
aI00
aI00
aI01
aI00
aI01
aI00
aI00
aI00
aI00
aI00
aI00
aI01
aa(lp93
I01
aI00
aI01
aI01
aI01
aI01
aI01
aI01
aI01
aI01
aI01
aI01
aI01
aI01
aI01
aI01
aa(lp94
I01
aI00
aI00
aI00
aI00
aI00
aI00
aI00
aI00
aI00
aI00
aI00
aI00
aI00
aI00
aI01
aa(lp95
I01
aI01
aI01
aI01
aI01
aI01
aI01
aI01
aI01
aI01
aI01
aI01
aI01
aI01
aI01
aI01
aasg49
I16
sbsS'layoutText'
p96
(lp97
S'%%%%%%%%%%%%%%%%%%%%%%%%%%%%%%%%'
p98
aS'%   %. %.%.%       %     %.%.%4%'
p99
aS'% % %%       %%  %   %%%   %.%2%'
p100
aS'% % %. % %%%    %%%% .%..% % %6%'
p101
aS'% % %% % ..% %   %   %%%%% % % %'
p102
aS'% %    %%%%% %%%   %%%.% o % % %'
p103
aS'% %% % ..%.  %.%%%       %   % %'
p104
aS'% %. %%.%%%%        %.%%%%  %% %'
p105
aS'% %%  %%%%.%        %%%%.%% .% %'
p106
aS'% %   %       %%%.%  .%.. % %% %'
p107
aS'% % % o %.%%%   %%% %%%%%    % %'
p108
aS'% % % %%%%%   %   % %.. % %% % %'
p109
aS'%5% % %..%. %%%%    %%% % .% % %'
p110
aS'%1%.%   %%%   %  %%       %% % %'
p111
aS'%3%.%.%     %       %.%.% .%   %'
p112
aS'%%%%%%%%%%%%%%%%%%%%%%%%%%%%%%%%'
p113
asbsS'blueTeamName'
p114
S'baselineTeam'
p115
sS'actions'
p116
(lp117
(I1
S'South'
p118
tp119
a(I2
S'North'
p120
tp121
a(I3
g118
tp122
a(I0
g118
tp123
a(I1
g118
tp124
a(I2
g118
tp125
a(I3
g118
tp126
a(I0
g120
tp127
a(I1
g118
tp128
a(I2
g120
tp129
a(I3
g118
tp130
a(I0
g118
tp131
a(I1
g118
tp132
a(I2
g118
tp133
a(I3
g118
tp134
a(I0
g120
tp135
a(I1
g118
tp136
a(I2
g120
tp137
a(I3
g118
tp138
a(I0
g118
tp139
a(I1
g118
tp140
a(I2
g118
tp141
a(I3
g118
tp142
a(I0
g120
tp143
a(I1
g118
tp144
a(I2
g120
tp145
a(I3
g118
tp146
a(I0
g118
tp147
a(I1
g118
tp148
a(I2
g118
tp149
a(I3
g118
tp150
a(I0
g120
tp151
a(I1
g118
tp152
a(I2
g120
tp153
a(I3
g118
tp154
a(I0
g118
tp155
a(I1
g118
tp156
a(I2
g118
tp157
a(I3
g118
tp158
a(I0
g120
tp159
a(I1
g118
tp160
a(I2
g120
tp161
a(I3
g118
tp162
a(I0
g118
tp163
a(I1
g118
tp164
a(I2
g118
tp165
a(I3
g118
tp166
a(I0
g120
tp167
a(I1
S'West'
p168
tp169
a(I2
g120
tp170
a(I3
g118
tp171
a(I0
g118
tp172
a(I1
g168
tp173
a(I2
g118
tp174
a(I3
g168
tp175
a(I0
g120
tp176
a(I1
g120
tp177
a(I2
g120
tp178
a(I3
g168
tp179
a(I0
g118
tp180
a(I1
g120
tp181
a(I2
g118
tp182
a(I3
g120
tp183
a(I0
g120
tp184
a(I1
g120
tp185
a(I2
g120
tp186
a(I3
g120
tp187
a(I0
g118
tp188
a(I1
g120
tp189
a(I2
g118
tp190
a(I3
g120
tp191
a(I0
g120
tp192
a(I1
g168
tp193
a(I2
g120
tp194
a(I3
g120
tp195
a(I0
g118
tp196
a(I1
g120
tp197
a(I2
g118
tp198
a(I3
g168
tp199
a(I0
g120
tp200
a(I1
g120
tp201
a(I2
g120
tp202
a(I3
g120
tp203
a(I0
g118
tp204
a(I1
g120
tp205
a(I2
g118
tp206
a(I3
g120
tp207
a(I0
g120
tp208
a(I1
g168
tp209
a(I2
g120
tp210
a(I3
S'East'
p211
tp212
a(I0
g118
tp213
a(I1
g120
tp214
a(I2
g118
tp215
a(I3
g168
tp216
a(I0
g120
tp217
a(I1
g120
tp218
a(I2
g120
tp219
a(I3
g120
tp220
a(I0
g118
tp221
a(I1
g168
tp222
a(I2
g118
tp223
a(I3
g168
tp224
a(I0
g120
tp225
a(I1
g168
tp226
a(I2
g120
tp227
a(I3
g120
tp228
a(I0
g118
tp229
a(I1
g118
tp230
a(I2
g118
tp231
a(I3
g120
tp232
a(I0
g120
tp233
a(I1
g168
tp234
a(I2
g120
tp235
a(I3
g120
tp236
a(I0
g118
tp237
a(I1
g168
tp238
a(I2
g118
tp239
a(I3
g120
tp240
a(I0
g120
tp241
a(I1
g168
tp242
a(I2
g120
tp243
a(I3
g120
tp244
a(I0
g118
tp245
a(I1
g168
tp246
a(I2
g118
tp247
a(I3
g168
tp248
a(I0
g120
tp249
a(I1
g168
tp250
a(I2
g120
tp251
a(I3
g168
tp252
a(I0
g118
tp253
a(I1
g168
tp254
a(I2
g118
tp255
a(I3
g120
tp256
a(I0
g120
tp257
a(I1
g118
tp258
a(I2
g120
tp259
a(I3
g168
tp260
a(I0
g118
tp261
a(I1
g168
tp262
a(I2
g118
tp263
a(I3
g168
tp264
a(I0
g120
tp265
a(I1
g168
tp266
a(I2
g120
tp267
a(I3
g168
tp268
a(I0
g118
tp269
a(I1
g168
tp270
a(I2
g120
tp271
a(I3
g168
tp272
a(I0
g120
tp273
a(I1
g168
tp274
a(I2
g120
tp275
a(I3
g118
tp276
a(I0
g118
tp277
a(I1
g120
tp278
a(I2
g120
tp279
a(I3
g168
tp280
a(I0
g120
tp281
a(I1
g118
tp282
a(I2
g120
tp283
a(I3
g168
tp284
a(I0
g118
tp285
a(I1
g168
tp286
a(I2
g120
tp287
a(I3
g120
tp288
a(I0
g120
tp289
a(I1
g168
tp290
a(I2
g120
tp291
a(I3
g168
tp292
a(I0
g118
tp293
a(I1
g120
tp294
a(I2
g120
tp295
a(I3
g168
tp296
a(I0
g120
tp297
a(I1
g168
tp298
a(I2
g120
tp299
a(I3
g118
tp300
a(I0
g118
tp301
a(I1
g168
tp302
a(I2
g120
tp303
a(I3
g120
tp304
a(I0
g120
tp305
a(I1
g211
tp306
a(I2
g120
tp307
a(I3
g211
tp308
a(I0
g118
tp309
a(I1
g211
tp310
a(I2
g120
tp311
a(I3
g211
tp312
a(I0
g120
tp313
a(I1
g118
tp314
a(I2
g120
tp315
a(I3
g118
tp316
a(I0
g118
tp317
a(I1
g118
tp318
a(I2
g211
tp319
a(I3
g211
tp320
a(I0
g120
tp321
a(I1
g118
tp322
a(I2
g211
tp323
a(I3
g211
tp324
a(I0
g118
tp325
a(I1
g168
tp326
a(I2
g118
tp327
a(I3
g118
tp328
a(I0
g120
tp329
a(I1
g168
tp330
a(I2
g118
tp331
a(I3
g211
tp332
a(I0
g118
tp333
a(I1
g120
tp334
a(I2
g120
tp335
a(I3
g168
tp336
a(I0
g120
tp337
a(I1
g118
tp338
a(I2
g118
tp339
a(I3
g120
tp340
a(I0
g118
tp341
a(I1
g168
tp342
a(I2
g120
tp343
a(I3
g120
tp344
a(I0
g120
tp345
a(I1
g118
tp346
a(I2
g118
tp347
a(I3
g211
tp348
a(I0
g118
tp349
a(I1
g120
tp350
a(I2
g120
tp351
a(I3
g211
tp352
a(I0
g120
tp353
a(I1
g168
tp354
a(I2
g118
tp355
a(I3
g211
tp356
a(I0
g118
tp357
a(I1
g168
tp358
a(I2
g120
tp359
a(I3
g211
tp360
a(I0
g120
tp361
a(I1
g118
tp362
a(I2
g118
tp363
a(I3
g118
tp364
a(I0
g118
tp365
a(I1
g168
tp366
a(I2
g118
tp367
a(I3
g211
tp368
a(I0
g120
tp369
a(I1
g168
tp370
a(I2
g118
tp371
a(I3
g211
tp372
a(I0
g118
tp373
a(I1
g118
tp374
a(I2
g211
tp375
a(I3
g118
tp376
a(I0
g120
tp377
a(I1
g118
tp378
a(I2
g211
tp379
a(I3
g118
tp380
a(I0
g118
tp381
a(I1
g118
tp382
a(I2
g211
tp383
a(I3
g118
tp384
a(I0
g120
tp385
a(I1
g118
tp386
a(I2
g120
tp387
a(I3
g118
tp388
a(I0
g118
tp389
a(I1
g120
tp390
a(I2
g120
tp391
a(I3
g118
tp392
a(I0
g120
tp393
a(I1
g211
tp394
a(I2
g120
tp395
a(I3
g211
tp396
a(I0
g118
tp397
a(I1
g211
tp398
a(I2
g211
tp399
a(I3
g120
tp400
a(I0
g120
tp401
a(I1
g120
tp402
a(I2
g211
tp403
a(I3
g168
tp404
a(I0
g118
tp405
a(I1
g211
tp406
a(I2
g168
tp407
a(I3
g120
tp408
a(I0
g120
tp409
a(I1
g168
tp410
a(I2
g211
tp411
a(I3
g120
tp412
a(I0
g118
tp413
a(I1
g118
tp414
a(I2
g168
tp415
a(I3
g120
tp416
a(I0
g120
tp417
a(I1
g118
tp418
a(I2
g211
tp419
a(I3
g120
tp420
a(I0
g118
tp421
a(I1
g211
tp422
a(I2
g168
tp423
a(I3
g120
tp424
a(I0
g120
tp425
a(I1
g211
tp426
a(I2
g211
tp427
a(I3
g118
tp428
a(I0
g118
tp429
a(I1
g211
tp430
a(I2
g168
tp431
a(I3
g168
tp432
a(I0
g120
tp433
a(I1
g211
tp434
a(I2
g211
tp435
a(I3
g168
tp436
a(I0
g118
tp437
a(I1
g120
tp438
a(I2
g168
tp439
a(I3
g120
tp440
a(I0
g120
tp441
a(I1
g120
tp442
a(I2
g211
tp443
a(I3
g168
tp444
a(I0
g118
tp445
a(I1
g168
tp446
a(I2
g168
tp447
a(I3
g168
tp448
a(I0
g120
tp449
a(I1
g211
tp450
a(I2
g211
tp451
a(I3
g168
tp452
a(I0
g118
tp453
a(I1
g120
tp454
a(I2
g168
tp455
a(I3
g168
tp456
a(I0
g120
tp457
a(I1
g211
tp458
a(I2
g211
tp459
a(I3
g118
tp460
a(I0
g118
tp461
a(I1
g211
tp462
a(I2
g168
tp463
a(I3
g168
tp464
a(I0
g120
tp465
a(I1
g120
tp466
a(I2
g211
tp467
a(I3
g168
tp468
a(I0
g118
tp469
a(I1
g120
tp470
a(I2
g168
tp471
a(I3
g120
tp472
a(I0
g120
tp473
a(I1
g168
tp474
a(I2
g211
tp475
a(I3
g168
tp476
a(I0
g118
tp477
a(I1
g120
tp478
a(I2
g168
tp479
a(I3
g168
tp480
a(I0
g120
tp481
a(I1
g120
tp482
a(I2
g211
tp483
a(I3
g118
tp484
a(I0
g118
tp485
a(I1
g120
tp486
a(I2
g168
tp487
a(I3
g120
tp488
a(I0
g120
tp489
a(I1
g120
tp490
a(I2
g211
tp491
a(I3
g211
tp492
a(I0
g118
tp493
a(I1
g120
tp494
a(I2
g168
tp495
a(I3
g211
tp496
a(I0
g120
tp497
a(I1
g120
tp498
a(I2
g211
tp499
a(I3
g118
tp500
a(I0
g118
tp501
a(I1
g120
tp502
a(I2
g168
tp503
a(I3
g211
tp504
a(I0
g120
tp505
a(I1
g168
tp506
a(I2
g211
tp507
a(I3
g211
tp508
a(I0
g118
tp509
a(I1
g168
tp510
a(I2
g168
tp511
a(I3
g118
tp512
a(I0
g120
tp513
a(I1
g120
tp514
a(I2
g211
tp515
a(I3
g118
tp516
a(I0
g118
tp517
a(I1
g118
tp518
a(I2
g168
tp519
a(I3
g168
tp520
a(I0
g120
tp521
a(I1
g168
tp522
a(I2
g211
tp523
a(I3
g168
tp524
a(I0
g118
tp525
a(I1
S'Stop'
p526
tp527
a(I2
g211
tp528
a(I3
g118
tp529
a(I0
g120
tp530
a(I1
g118
tp531
a(I2
g168
tp532
a(I3
g118
tp533
a(I0
g118
tp534
a(I1
g118
tp535
a(I2
g120
tp536
a(I3
g118
tp537
a(I0
g120
tp538
a(I1
g118
tp539
a(I2
g118
tp540
a(I3
g168
tp541
a(I0
g118
tp542
a(I1
g118
tp543
a(I2
g120
tp544
a(I3
g118
tp545
a(I0
g120
tp546
a(I1
g118
tp547
a(I2
g118
tp548
a(I3
g211
tp549
a(I0
g118
tp550
a(I1
g118
tp551
a(I2
g120
tp552
a(I3
g120
tp553
a(I0
g120
tp554
a(I1
g118
tp555
a(I2
g118
tp556
a(I3
g168
tp557
a(I0
g118
tp558
a(I1
g118
tp559
a(I2
g120
tp560
a(I3
g118
tp561
a(I0
g120
tp562
a(I1
g118
tp563
a(I2
g118
tp564
a(I3
g211
tp565
a(I0
g118
tp566
a(I1
g118
tp567
a(I2
g120
tp568
a(I3
g211
tp569
a(I0
g120
tp570
a(I1
g118
tp571
a(I2
g118
tp572
a(I3
g120
tp573
a(I0
g118
tp574
a(I1
g118
tp575
a(I2
g120
tp576
a(I3
g168
tp577
a(I0
g120
tp578
a(I1
g168
tp579
a(I2
g118
tp580
a(I3
g118
tp581
a(I0
g118
tp582
a(I1
g168
tp583
a(I2
g120
tp584
a(I3
g168
tp585
a(I0
g120
tp586
a(I1
g120
tp587
a(I2
g118
tp588
a(I3
g118
tp589
a(I0
g118
tp590
a(I1
g120
tp591
a(I2
g120
tp592
a(I3
g120
tp593
a(I0
g120
tp594
a(I1
g120
tp595
a(I2
g118
tp596
a(I3
g120
tp597
a(I0
g118
tp598
a(I1
g120
tp599
a(I2
g120
tp600
a(I3
g211
tp601
a(I0
g120
tp602
a(I1
g168
tp603
a(I2
g118
tp604
a(I3
g118
tp605
a(I0
g118
tp606
a(I1
g120
tp607
a(I2
g120
tp608
a(I3
g168
tp609
a(I0
g120
tp610
a(I1
g120
tp611
a(I2
g118
tp612
a(I3
g118
tp613
a(I0
g118
tp614
a(I1
g120
tp615
a(I2
g120
tp616
a(I3
g120
tp617
a(I0
g120
tp618
a(I1
g120
tp619
a(I2
g118
tp620
a(I3
g211
tp621
a(I0
g118
tp622
a(I1
g168
tp623
a(I2
g120
tp624
a(I3
g211
tp625
a(I0
g120
tp626
a(I1
g120
tp627
a(I2
g118
tp628
a(I3
g120
tp629
a(I0
g118
tp630
a(I1
g168
tp631
a(I2
g120
tp632
a(I3
g168
tp633
a(I0
g120
tp634
a(I1
g168
tp635
a(I2
g118
tp636
a(I3
g168
tp637
a(I0
g118
tp638
a(I1
g118
tp639
a(I2
g120
tp640
a(I3
g168
tp641
a(I0
g120
tp642
a(I1
g168
tp643
a(I2
g118
tp644
a(I3
g118
tp645
a(I0
g118
tp646
a(I1
g168
tp647
a(I2
g120
tp648
a(I3
g211
tp649
a(I0
g120
tp650
a(I1
g168
tp651
a(I2
g118
tp652
a(I3
g120
tp653
a(I0
g118
tp654
a(I1
g168
tp655
a(I2
g120
tp656
a(I3
g211
tp657
a(I0
g120
tp658
a(I1
g168
tp659
a(I2
g118
tp660
a(I3
g120
tp661
a(I0
g118
tp662
a(I1
g168
tp663
a(I2
g120
tp664
a(I3
g120
tp665
a(I0
g120
tp666
a(I1
g120
tp667
a(I2
g118
tp668
a(I3
g120
tp669
a(I0
g118
tp670
a(I1
g168
tp671
a(I2
g120
tp672
a(I3
g211
tp673
a(I0
g120
tp674
a(I1
g168
tp675
a(I2
g118
tp676
a(I3
g211
tp677
a(I0
g118
tp678
a(I1
g120
tp679
a(I2
g120
tp680
a(I3
g120
tp681
a(I0
g120
tp682
a(I1
g168
tp683
a(I2
g118
tp684
a(I3
g211
tp685
a(I0
g118
tp686
a(I1
g168
tp687
a(I2
g211
tp688
a(I3
g168
tp689
a(I0
g120
tp690
a(I1
g120
tp691
a(I2
g211
tp692
a(I3
g120
tp693
a(I0
g118
tp694
a(I1
g168
tp695
a(I2
g211
tp696
a(I3
g168
tp697
a(I0
g120
tp698
a(I1
g168
tp699
a(I2
g211
tp700
a(I3
g168
tp701
a(I0
g118
tp702
a(I1
g526
tp703
a(I2
g118
tp704
a(I3
g120
tp705
a(I0
g120
tp706
a(I1
g118
tp707
a(I2
g120
tp708
a(I3
g168
tp709
a(I0
g118
tp710
a(I1
g118
tp711
a(I2
g168
tp712
a(I3
g168
tp713
a(I0
g120
tp714
a(I1
g118
tp715
a(I2
g168
tp716
a(I3
g118
tp717
a(I0
g118
tp718
a(I1
g118
tp719
a(I2
g120
tp720
a(I3
g120
tp721
a(I0
g120
tp722
a(I1
g118
tp723
a(I2
g118
tp724
a(I3
g211
tp725
a(I0
g118
tp726
a(I1
g118
tp727
a(I2
g120
tp728
a(I3
g211
tp729
a(I0
g120
tp730
a(I1
g118
tp731
a(I2
g118
tp732
a(I3
g118
tp733
a(I0
g118
tp734
a(I1
g118
tp735
a(I2
g120
tp736
a(I3
g211
tp737
a(I0
g120
tp738
a(I1
g118
tp739
a(I2
g118
tp740
a(I3
g211
tp741
a(I0
g118
tp742
a(I1
g118
tp743
a(I2
g120
tp744
a(I3
g120
tp745
a(I0
g120
tp746
a(I1
g118
tp747
a(I2
g118
tp748
a(I3
g211
tp749
a(I0
g118
tp750
a(I1
g118
tp751
a(I2
g120
tp752
a(I3
g211
tp753
a(I0
g120
tp754
a(I1
g168
tp755
a(I2
g118
tp756
a(I3
g211
tp757
a(I0
g118
tp758
a(I1
g168
tp759
a(I2
g120
tp760
a(I3
g211
tp761
a(I0
g120
tp762
a(I1
g120
tp763
a(I2
g118
tp764
a(I3
g118
tp765
a(I0
g118
tp766
a(I1
g120
tp767
a(I2
g120
tp768
a(I3
g118
tp769
a(I0
g120
tp770
a(I1
g120
tp771
a(I2
g118
tp772
a(I3
g168
tp773
a(I0
g118
tp774
a(I1
g120
tp775
a(I2
g120
tp776
a(I3
g211
tp777
a(I0
g120
tp778
a(I1
g168
tp779
a(I2
g118
tp780
a(I3
g120
tp781
a(I0
g118
tp782
a(I1
g120
tp783
a(I2
g120
tp784
a(I3
g120
tp785
a(I0
g120
tp786
a(I1
g120
tp787
a(I2
g118
tp788
a(I3
g168
tp789
a(I0
g118
tp790
a(I1
g120
tp791
a(I2
g120
tp792
a(I3
g168
tp793
a(I0
g120
tp794
a(I1
g120
tp795
a(I2
g118
tp796
a(I3
g168
tp797
a(I0
g118
tp798
a(I1
g168
tp799
a(I2
g120
tp800
a(I3
g168
tp801
a(I0
g120
tp802
a(I1
g120
tp803
a(I2
g118
tp804
a(I3
g118
tp805
a(I0
g118
tp806
a(I1
g168
tp807
a(I2
g120
tp808
a(I3
g168
tp809
a(I0
g120
tp810
a(I1
g168
tp811
a(I2
g118
tp812
a(I3
g168
tp813
a(I0
g118
tp814
a(I1
g118
tp815
a(I2
g120
tp816
a(I3
g120
tp817
a(I0
g120
tp818
a(I1
g168
tp819
a(I2
g118
tp820
a(I3
g168
tp821
a(I0
g118
tp822
a(I1
g168
tp823
a(I2
g120
tp824
a(I3
g168
tp825
a(I0
g120
tp826
a(I1
g168
tp827
a(I2
g118
tp828
a(I3
g118
tp829
a(I0
g118
tp830
a(I1
g168
tp831
a(I2
g120
tp832
a(I3
g120
tp833
a(I0
g120
tp834
a(I1
g168
tp835
a(I2
g118
tp836
a(I3
g211
tp837
a(I0
g118
tp838
a(I1
g168
tp839
a(I2
g120
tp840
a(I3
g211
tp841
a(I0
g120
tp842
a(I1
g120
tp843
a(I2
g118
tp844
a(I3
g118
tp845
a(I0
g118
tp846
a(I1
g168
tp847
a(I2
g120
tp848
a(I3
g211
tp849
a(I0
g120
tp850
a(I1
g168
tp851
a(I2
g118
tp852
a(I3
g211
tp853
a(I0
g118
tp854
a(I1
g120
tp855
a(I2
g120
tp856
a(I3
g118
tp857
a(I0
g120
tp858
a(I1
g168
tp859
a(I2
g118
tp860
a(I3
g211
tp861
a(I0
g118
tp862
a(I1
g168
tp863
a(I2
g211
tp864
a(I3
g168
tp865
a(I0
g120
tp866
a(I1
g120
tp867
a(I2
g211
tp868
a(I3
g120
tp869
a(I0
g118
tp870
a(I1
g168
tp871
a(I2
g118
tp872
a(I3
g168
tp873
a(I0
g120
tp874
a(I1
g526
tp875
a(I2
g211
tp876
a(I3
g168
tp877
a(I0
g118
tp878
a(I1
g118
tp879
a(I2
g168
tp880
a(I3
g120
tp881
a(I0
g120
tp882
a(I1
g118
tp883
a(I2
g120
tp884
a(I3
g168
tp885
a(I0
g118
tp886
a(I1
g118
tp887
a(I2
g168
tp888
a(I3
g168
tp889
a(I0
g120
tp890
a(I1
g118
tp891
a(I2
g168
tp892
a(I3
g118
tp893
a(I0
g118
tp894
a(I1
g118
tp895
a(I2
g120
tp896
a(I3
g120
tp897
a(I0
g120
tp898
a(I1
g118
tp899
a(I2
g118
tp900
a(I3
g211
tp901
a(I0
g118
tp902
a(I1
g118
tp903
a(I2
g120
tp904
a(I3
g211
tp905
a(I0
g120
tp906
a(I1
g118
tp907
a(I2
g118
tp908
a(I3
g118
tp909
a(I0
g118
tp910
a(I1
g118
tp911
a(I2
g120
tp912
a(I3
g211
tp913
a(I0
g120
tp914
a(I1
g118
tp915
a(I2
g118
tp916
a(I3
g211
tp917
a(I0
g118
tp918
a(I1
g118
tp919
a(I2
g120
tp920
a(I3
g120
tp921
a(I0
g120
tp922
a(I1
g118
tp923
a(I2
g118
tp924
a(I3
g211
tp925
a(I0
g118
tp926
a(I1
g168
tp927
a(I2
g120
tp928
a(I3
g211
tp929
a(I0
g120
tp930
a(I1
g168
tp931
a(I2
g118
tp932
a(I3
g211
tp933
a(I0
g118
tp934
a(I1
g120
tp935
a(I2
g120
tp936
a(I3
g211
tp937
a(I0
g120
tp938
a(I1
g120
tp939
a(I2
g118
tp940
a(I3
g118
tp941
a(I0
g118
tp942
a(I1
g120
tp943
a(I2
g120
tp944
a(I3
g211
tp945
a(I0
g120
tp946
a(I1
g120
tp947
a(I2
g118
tp948
a(I3
g211
tp949
a(I0
g118
tp950
a(I1
g168
tp951
a(I2
g120
tp952
a(I3
g118
tp953
a(I0
g120
tp954
a(I1
g120
tp955
a(I2
g118
tp956
a(I3
g118
tp957
a(I0
g118
tp958
a(I1
g120
tp959
a(I2
g120
tp960
a(I3
g118
tp961
a(I0
g120
tp962
a(I1
g120
tp963
a(I2
g118
tp964
a(I3
g118
tp965
a(I0
g118
tp966
a(I1
g168
tp967
a(I2
g120
tp968
a(I3
g118
tp969
a(I0
g120
tp970
a(I1
g120
tp971
a(I2
g118
tp972
a(I3
g211
tp973
a(I0
g118
tp974
a(I1
g120
tp975
a(I2
g120
tp976
a(I3
g120
tp977
a(I0
g120
tp978
a(I1
g168
tp979
a(I2
g118
tp980
a(I3
g168
tp981
a(I0
g118
tp982
a(I1
g168
tp983
a(I2
g120
tp984
a(I3
g118
tp985
a(I0
g120
tp986
a(I1
g118
tp987
a(I2
g118
tp988
a(I3
g211
tp989
a(I0
g118
tp990
a(I1
g168
tp991
a(I2
g120
tp992
a(I3
g120
tp993
a(I0
g120
tp994
a(I1
g168
tp995
a(I2
g118
tp996
a(I3
g211
tp997
a(I0
g118
tp998
a(I1
g168
tp999
a(I2
g120
tp1000
a(I3
g120
tp1001
a(I0
g120
tp1002
a(I1
g168
tp1003
a(I2
g118
tp1004
a(I3
g120
tp1005
a(I0
g118
tp1006
a(I1
g168
tp1007
a(I2
g120
tp1008
a(I3
g120
tp1009
a(I0
g120
tp1010
a(I1
g168
tp1011
a(I2
g118
tp1012
a(I3
g120
tp1013
a(I0
g118
tp1014
a(I1
g120
tp1015
a(I2
g120
tp1016
a(I3
g120
tp1017
a(I0
g120
tp1018
a(I1
g168
tp1019
a(I2
g118
tp1020
a(I3
g118
tp1021
a(I0
g118
tp1022
a(I1
g168
tp1023
a(I2
g120
tp1024
a(I3
g118
tp1025
a(I0
g120
tp1026
a(I1
g120
tp1027
a(I2
g118
tp1028
a(I3
g118
tp1029
a(I0
g118
tp1030
a(I1
g168
tp1031
a(I2
g211
tp1032
a(I3
g118
tp1033
a(I0
g120
tp1034
a(I1
g168
tp1035
a(I2
g211
tp1036
a(I3
g118
tp1037
a(I0
g118
tp1038
a(I1
g120
tp1039
a(I2
g118
tp1040
a(I3
g168
tp1041
a(I0
g120
tp1042
a(I1
g168
tp1043
a(I2
g211
tp1044
a(I3
g168
tp1045
a(I0
g118
tp1046
a(I1
g118
tp1047
a(I2
g168
tp1048
a(I3
g118
tp1049
a(I0
g120
tp1050
a(I1
g118
tp1051
a(I2
g120
tp1052
a(I3
g211
tp1053
a(I0
g118
tp1054
a(I1
g118
tp1055
a(I2
g168
tp1056
a(I3
g120
tp1057
a(I0
g120
tp1058
a(I1
g118
tp1059
a(I2
g168
tp1060
a(I3
g211
tp1061
a(I0
g118
tp1062
a(I1
g118
tp1063
a(I2
g120
tp1064
a(I3
g120
tp1065
a(I0
g120
tp1066
a(I1
g118
tp1067
a(I2
g118
tp1068
a(I3
g120
tp1069
a(I0
g118
tp1070
a(I1
g118
tp1071
a(I2
g120
tp1072
a(I3
g120
tp1073
a(I0
g120
tp1074
a(I1
g118
tp1075
a(I2
g118
tp1076
a(I3
g120
tp1077
a(I0
g118
tp1078
a(I1
g118
tp1079
a(I2
g120
tp1080
a(I3
g120
tp1081
a(I0
g120
tp1082
a(I1
g118
tp1083
a(I2
g118
tp1084
a(I3
g118
tp1085
a(I0
g118
tp1086
a(I1
g118
tp1087
a(I2
g120
tp1088
a(I3
g118
tp1089
a(I0
g120
tp1090
a(I1
g118
tp1091
a(I2
g118
tp1092
a(I3
g118
tp1093
a(I0
g118
tp1094
a(I1
g168
tp1095
a(I2
g120
tp1096
a(I3
g118
tp1097
a(I0
g120
tp1098
a(I1
g168
tp1099
a(I2
g118
tp1100
a(I3
g118
tp1101
a(I0
g118
tp1102
a(I1
g120
tp1103
a(I2
g120
tp1104
a(I3
g168
tp1105
a(I0
g120
tp1106
a(I1
g120
tp1107
a(I2
g118
tp1108
a(I3
g118
tp1109
a(I0
g118
tp1110
a(I1
g120
tp1111
a(I2
g120
tp1112
a(I3
g168
tp1113
a(I0
g120
tp1114
a(I1
g120
tp1115
a(I2
g118
tp1116
a(I3
g120
tp1117
a(I0
g118
tp1118
a(I1
g168
tp1119
a(I2
g120
tp1120
a(I3
g120
tp1121
a(I0
g120
tp1122
a(I1
g120
tp1123
a(I2
g118
tp1124
a(I3
g120
tp1125
a(I0
g118
tp1126
a(I1
g120
tp1127
a(I2
g120
tp1128
a(I3
g120
tp1129
a(I0
g120
tp1130
a(I1
g120
tp1131
a(I2
g118
tp1132
a(I3
g120
tp1133
a(I0
g118
tp1134
a(I1
g120
tp1135
a(I2
g120
tp1136
a(I3
g120
tp1137
a(I0
g120
tp1138
a(I1
g168
tp1139
a(I2
g118
tp1140
a(I3
g118
tp1141
a(I0
g118
tp1142
a(I1
g120
tp1143
a(I2
g120
tp1144
a(I3
g118
tp1145
a(I0
g120
tp1146
a(I1
g168
tp1147
a(I2
g118
tp1148
a(I3
g118
tp1149
a(I0
g118
tp1150
a(I1
g168
tp1151
a(I2
g120
tp1152
a(I3
g118
tp1153
a(I0
g120
tp1154
a(I1
g118
tp1155
a(I2
g118
tp1156
a(I3
g168
tp1157
a(I0
g118
tp1158
a(I1
g168
tp1159
a(I2
g120
tp1160
a(I3
g168
tp1161
a(I0
g120
tp1162
a(I1
g168
tp1163
a(I2
g118
tp1164
a(I3
g118
tp1165
a(I0
g118
tp1166
a(I1
g168
tp1167
a(I2
g120
tp1168
a(I3
g168
tp1169
a(I0
g120
tp1170
a(I1
g168
tp1171
a(I2
g118
tp1172
a(I3
g168
tp1173
a(I0
g118
tp1174
a(I1
g168
tp1175
a(I2
g120
tp1176
a(I3
g120
tp1177
a(I0
g120
tp1178
a(I1
g168
tp1179
a(I2
g118
tp1180
a(I3
g118
tp1181
a(I0
g118
tp1182
a(I1
g120
tp1183
a(I2
g120
tp1184
a(I3
g211
tp1185
a(I0
g120
tp1186
a(I1
g168
tp1187
a(I2
g118
tp1188
a(I3
g211
tp1189
a(I0
g118
tp1190
a(I1
g168
tp1191
a(I2
g120
tp1192
a(I3
g120
tp1193
a(I0
g120
tp1194
a(I1
g120
tp1195
a(I2
g118
tp1196
a(I3
g211
tp1197
a(I0
g118
tp1198
a(I1
g168
tp1199
a(I2
g211
tp1200
a(I3
g211
tp1201
a(I0
g120
tp1202
a(I1
g120
tp1203
a(I2
g211
tp1204
a(I3
g120
tp1205
a(I0
g118
tp1206
a(I1
g168
tp1207
a(I2
g118
tp1208
a(I3
g120
tp1209
a(I0
g120
tp1210
a(I1
g168
tp1211
a(I2
g211
tp1212
a(I3
g120
tp1213
a(I0
g118
tp1214
a(I1
g118
tp1215
a(I2
g168
tp1216
a(I3
g168
tp1217
a(I0
g120
tp1218
a(I1
g118
tp1219
a(I2
g120
tp1220
a(I3
g168
tp1221
a(I0
g118
tp1222
a(I1
g118
tp1223
a(I2
g168
tp1224
a(I3
g118
tp1225
a(I0
g120
tp1226
a(I1
g118
tp1227
a(I2
g168
tp1228
a(I3
g168
tp1229
a(I0
g118
tp1230
a(I1
g118
tp1231
a(I2
g120
tp1232
a(I3
g211
tp1233
a(I0
g120
tp1234
a(I1
g118
tp1235
a(I2
g118
tp1236
a(I3
g120
tp1237
a(I0
g118
tp1238
a(I1
g118
tp1239
a(I2
g120
tp1240
a(I3
g211
tp1241
a(I0
g120
tp1242
a(I1
g118
tp1243
a(I2
g118
tp1244
a(I3
g211
tp1245
a(I0
g118
tp1246
a(I1
g118
tp1247
a(I2
g120
tp1248
a(I3
g120
tp1249
a(I0
g120
tp1250
a(I1
g118
tp1251
a(I2
g118
tp1252
a(I3
g118
tp1253
a(I0
g118
tp1254
a(I1
g118
tp1255
a(I2
g120
tp1256
a(I3
g168
tp1257
a(I0
g120
tp1258
a(I1
g118
tp1259
a(I2
g118
tp1260
a(I3
g168
tp1261
a(I0
g118
tp1262
a(I1
g168
tp1263
a(I2
g120
tp1264
a(I3
g118
tp1265
a(I0
g120
tp1266
a(I1
g168
tp1267
a(I2
g118
tp1268
a(I3
g168
tp1269
a(I0
g118
tp1270
a(I1
g120
tp1271
a(I2
g120
tp1272
a(I3
g211
tp1273
a(I0
g120
tp1274
a(I1
g120
tp1275
a(I2
g118
tp1276
a(I3
g120
tp1277
a(I0
g118
tp1278
a(I1
g120
tp1279
a(I2
g120
tp1280
a(I3
g120
tp1281
a(I0
g120
tp1282
a(I1
g120
tp1283
a(I2
g118
tp1284
a(I3
g168
tp1285
a(I0
g118
tp1286
a(I1
g168
tp1287
a(I2
g120
tp1288
a(I3
g168
tp1289
a(I0
g120
tp1290
a(I1
g120
tp1291
a(I2
g118
tp1292
a(I3
g168
tp1293
a(I0
g118
tp1294
a(I1
g120
tp1295
a(I2
g120
tp1296
a(I3
g168
tp1297
a(I0
g120
tp1298
a(I1
g120
tp1299
a(I2
g118
tp1300
a(I3
g118
tp1301
a(I0
g118
tp1302
a(I1
g168
tp1303
a(I2
g120
tp1304
a(I3
g118
tp1305
a(I0
g120
tp1306
a(I1
g120
tp1307
a(I2
g118
tp1308
a(I3
g211
tp1309
a(I0
g118
tp1310
a(I1
g120
tp1311
a(I2
g120
tp1312
a(I3
g168
tp1313
a(I0
g120
tp1314
a(I1
g168
tp1315
a(I2
g118
tp1316
a(I3
g118
tp1317
a(I0
g118
tp1318
a(I1
g168
tp1319
a(I2
g120
tp1320
a(I3
g168
tp1321
a(I0
g120
tp1322
asS'length'
p1323
I1200
sS'agents'
p1324
(lp1325
(igame
Agent
p1326
(dp1327
S'index'
p1328
I0
sba(igame
Agent
p1329
(dp1330
g1328
I0
sba(igame
Agent
p1331
(dp1332
g1328
I0
sba(igame
Agent
p1333
(dp1334
g1328
I0
sbasS'redTeamName'
p1335
S'myTeam'
p1336
s.