(dp1
S'layout'
p2
(ilayout
Layout
p3
(dp4
S'capsules'
p5
(lp6
(I1
I6
tp7
a(I42
I6
tp8
asS'numGhosts'
p9
I4
sS'food'
p10
(igame
Grid
p11
(dp12
S'CELLS_PER_INT'
p13
I30
sS'width'
p14
I44
sS'data'
p15
(lp16
(lp17
I00
aI00
aI00
aI00
aI00
aI00
aI00
aI00
aI00
aI00
aI00
aI00
aI00
aa(lp18
I00
aI00
aI00
aI00
aI00
aI00
aI00
aI00
aI00
aI00
aI00
aI00
aI00
aa(lp19
I00
aI00
aI00
aI00
aI00
aI00
aI00
aI00
aI00
aI00
aI00
aI00
aI00
aa(lp20
I00
aI00
aI00
aI00
aI01
aI00
aI01
aI00
aI01
aI00
aI00
aI00
aI00
aa(lp21
I00
aI00
aI00
aI00
aI00
aI00
aI00
aI00
aI00
aI00
aI00
aI00
aI00
aa(lp22
I00
aI00
aI00
aI00
aI00
aI00
aI00
aI00
aI00
aI00
aI00
aI00
aI00
aa(lp23
I00
aI01
aI00
aI01
aI00
aI01
aI00
aI01
aI00
aI01
aI00
aI01
aI00
aa(lp24
I00
aI00
aI00
aI00
aI00
aI00
aI00
aI00
aI00
aI00
aI00
aI00
aI00
aa(lp25
I00
aI00
aI00
aI00
aI00
aI00
aI00
aI00
aI00
aI00
aI00
aI00
aI00
aa(lp26
I00
aI00
aI00
aI01
aI00
aI01
aI00
aI01
aI00
aI01
aI00
aI00
aI00
aa(lp27
I00
aI01
aI00
aI00
aI00
aI00
aI01
aI00
aI00
aI00
aI00
aI01
aI00
aa(lp28
I00
aI01
aI00
aI00
aI00
aI00
aI01
aI00
aI00
aI00
aI00
aI01
aI00
aa(lp29
I00
aI00
aI00
aI01
aI00
aI01
aI00
aI01
aI00
aI01
aI00
aI00
aI00
aa(lp30
I00
aI00
aI00
aI00
aI00
aI00
aI00
aI00
aI00
aI00
aI00
aI00
aI00
aa(lp31
I00
aI00
aI00
aI00
aI00
aI00
aI00
aI00
aI00
aI00
aI00
aI00
aI00
aa(lp32
I00
aI00
aI00
aI01
aI00
aI01
aI00
aI01
aI00
aI01
aI00
aI00
aI00
aa(lp33
I00
aI01
aI00
aI00
aI00
aI00
aI01
aI00
aI00
aI00
aI00
aI01
aI00
aa(lp34
I00
aI01
aI00
aI00
aI00
aI00
aI01
aI00
aI00
aI00
aI00
aI01
aI00
aa(lp35
I00
aI00
aI00
aI01
aI00
aI01
aI00
aI01
aI00
aI01
aI00
aI00
aI00
aa(lp36
I00
aI00
aI00
aI00
aI00
aI00
aI00
aI00
aI00
aI00
aI00
aI00
aI00
aa(lp37
I00
aI00
aI00
aI00
aI00
aI00
aI00
aI00
aI00
aI00
aI00
aI00
aI00
aa(lp38
I00
aI00
aI00
aI00
aI00
aI00
aI00
aI00
aI00
aI00
aI00
aI00
aI00
aa(lp39
I00
aI00
aI00
aI00
aI00
aI00
aI00
aI00
aI00
aI00
aI00
aI00
aI00
aa(lp40
I00
aI00
aI00
aI00
aI00
aI00
aI00
aI00
aI00
aI00
aI00
aI00
aI00
aa(lp41
I00
aI00
aI00
aI00
aI00
aI00
aI00
aI00
aI00
aI00
aI00
aI00
aI00
aa(lp42
I00
aI00
aI00
aI01
aI00
aI01
aI00
aI01
aI00
aI01
aI00
aI00
aI00
aa(lp43
I00
aI01
aI00
aI00
aI00
aI00
aI01
aI00
aI00
aI00
aI00
aI01
aI00
aa(lp44
I00
aI01
aI00
aI00
aI00
aI00
aI01
aI00
aI00
aI00
aI00
aI01
aI00
aa(lp45
I00
aI00
aI00
aI01
aI00
aI01
aI00
aI01
aI00
aI01
aI00
aI00
aI00
aa(lp46
I00
aI00
aI00
aI00
aI00
aI00
aI00
aI00
aI00
aI00
aI00
aI00
aI00
aa(lp47
I00
aI00
aI00
aI00
aI00
aI00
aI00
aI00
aI00
aI00
aI00
aI00
aI00
aa(lp48
I00
aI00
aI00
aI01
aI00
aI01
aI00
aI01
aI00
aI01
aI00
aI00
aI00
aa(lp49
I00
aI01
aI00
aI00
aI00
aI00
aI01
aI00
aI00
aI00
aI00
aI01
aI00
aa(lp50
I00
aI01
aI00
aI00
aI00
aI00
aI01
aI00
aI00
aI00
aI00
aI01
aI00
aa(lp51
I00
aI00
aI00
aI01
aI00
aI01
aI00
aI01
aI00
aI01
aI00
aI00
aI00
aa(lp52
I00
aI00
aI00
aI00
aI00
aI00
aI00
aI00
aI00
aI00
aI00
aI00
aI00
aa(lp53
I00
aI00
aI00
aI00
aI00
aI00
aI00
aI00
aI00
aI00
aI00
aI00
aI00
aa(lp54
I00
aI01
aI00
aI01
aI00
aI01
aI00
aI01
aI00
aI01
aI00
aI01
aI00
aa(lp55
I00
aI00
aI00
aI00
aI00
aI00
aI00
aI00
aI00
aI00
aI00
aI00
aI00
aa(lp56
I00
aI00
aI00
aI00
aI00
aI00
aI00
aI00
aI00
aI00
aI00
aI00
aI00
aa(lp57
I00
aI00
aI00
aI00
aI01
aI00
aI00
aI00
aI01
aI00
aI00
aI00
aI00
aa(lp58
I00
aI00
aI00
aI00
aI00
aI00
aI00
aI00
aI00
aI00
aI00
aI00
aI00
aa(lp59
I00
aI00
aI00
aI00
aI00
aI00
aI00
aI00
aI00
aI00
aI00
aI00
aI00
aa(lp60
I00
aI00
aI00
aI00
aI00
aI00
aI00
aI00
aI00
aI00
aI00
aI00
aI00
aasS'height'
p61
I13
sbsS'agentPositions'
p62
(lp63
(I00
(I1
I8
tp64
tp65
a(I00
(I42
I8
tp66
tp67
a(I00
(I1
I4
tp68
tp69
a(I00
(I42
I4
tp70
tp71
asg61
I13
sg14
I44
sS'walls'
p72
(igame
Grid
p73
(dp74
g13
I30
sg14
I44
sg15
(lp75
(lp76
I01
aI01
aI01
aI01
aI01
aI01
aI01
aI01
aI01
aI01
aI01
aI01
aI01
aa(lp77
I01
aI00
aI00
aI00
aI00
aI01
aI00
aI01
aI00
aI00
aI00
aI00
aI01
aa(lp78
I01
aI00
aI01
aI01
aI01
aI01
aI00
aI01
aI01
aI01
aI01
aI00
aI01
aa(lp79
I01
aI00
aI00
aI00
aI00
aI01
aI00
aI01
aI00
aI00
aI00
aI00
aI01
aa(lp80
I01
aI00
aI01
aI01
aI01
aI01
aI00
aI01
aI01
aI01
aI01
aI00
aI01
aa(lp81
I01
aI00
aI00
aI00
aI00
aI00
aI00
aI00
aI00
aI00
aI00
aI00
aI01
aa(lp82
I01
aI00
aI01
aI00
aI01
aI00
aI01
aI00
aI01
aI00
aI01
aI00
aI01
aa(lp83
I01
aI00
aI01
aI00
aI01
aI00
aI01
aI00
aI01
aI00
aI01
aI00
aI01
aa(lp84
I01
aI00
aI01
aI00
aI01
aI00
aI01
aI00
aI01
aI00
aI01
aI00
aI01
aa(lp85
I01
aI00
aI01
aI00
aI01
aI00
aI01
aI00
aI01
aI00
aI01
aI00
aI01
aa(lp86
I01
aI00
aI01
aI00
aI01
aI00
aI00
aI00
aI01
aI00
aI01
aI00
aI01
aa(lp87
I01
aI00
aI01
aI00
aI01
aI00
aI00
aI00
aI01
aI00
aI01
aI00
aI01
aa(lp88
I01
aI00
aI01
aI00
aI01
aI00
aI01
aI00
aI01
aI00
aI01
aI00
aI01
aa(lp89
I01
aI00
aI01
aI00
aI01
aI00
aI01
aI00
aI01
aI00
aI01
aI00
aI01
aa(lp90
I01
aI00
aI01
aI00
aI01
aI00
aI01
aI00
aI01
aI00
aI01
aI00
aI01
aa(lp91
I01
aI00
aI01
aI00
aI01
aI00
aI01
aI00
aI01
aI00
aI01
aI00
aI01
aa(lp92
I01
aI00
aI01
aI00
aI01
aI00
aI00
aI00
aI01
aI00
aI01
aI00
aI01
aa(lp93
I01
aI00
aI01
aI00
aI01
aI00
aI00
aI00
aI01
aI00
aI01
aI00
aI01
aa(lp94
I01
aI00
aI01
aI00
aI01
aI00
aI01
aI00
aI01
aI00
aI01
aI00
aI01
aa(lp95
I01
aI00
aI01
aI00
aI01
aI00
aI01
aI00
aI01
aI00
aI01
aI00
aI01
aa(lp96
I01
aI00
aI00
aI00
aI00
aI00
aI01
aI00
aI00
aI00
aI00
aI00
aI01
aa(lp97
I01
aI00
aI01
aI01
aI01
aI00
aI01
aI00
aI01
aI01
aI01
aI00
aI01
aa(lp98
I01
aI00
aI01
aI01
aI01
aI00
aI01
aI00
aI01
aI01
aI01
aI00
aI01
aa(lp99
I01
aI00
aI00
aI00
aI00
aI00
aI01
aI00
aI00
aI00
aI00
aI00
aI01
aa(lp100
I01
aI00
aI01
aI00
aI01
aI00
aI01
aI00
aI01
aI00
aI01
aI00
aI01
aa(lp101
I01
aI00
aI01
aI00
aI01
aI00
aI01
aI00
aI01
aI00
aI01
aI00
aI01
aa(lp102
I01
aI00
aI01
aI00
aI01
aI00
aI00
aI00
aI01
aI00
aI01
aI00
aI01
aa(lp103
I01
aI00
aI01
aI00
aI01
aI00
aI00
aI00
aI01
aI00
aI01
aI00
aI01
aa(lp104
I01
aI00
aI01
aI00
aI01
aI00
aI01
aI00
aI01
aI00
aI01
aI00
aI01
aa(lp105
I01
aI00
aI01
aI00
aI01
aI00
aI01
aI00
aI01
aI00
aI01
aI00
aI01
aa(lp106
I01
aI00
aI01
aI00
aI01
aI00
aI01
aI00
aI01
aI00
aI01
aI00
aI01
aa(lp107
I01
aI00
aI01
aI00
aI01
aI00
aI01
aI00
aI01
aI00
aI01
aI00
aI01
aa(lp108
I01
aI00
aI01
aI00
aI01
aI00
aI00
aI00
aI01
aI00
aI01
aI00
aI01
aa(lp109
I01
aI00
aI01
aI00
aI01
aI00
aI00
aI00
aI01
aI00
aI01
aI00
aI01
aa(lp110
I01
aI00
aI01
aI00
aI01
aI00
aI01
aI00
aI01
aI00
aI01
aI00
aI01
aa(lp111
I01
aI00
aI01
aI00
aI01
aI00
aI01
aI00
aI01
aI00
aI01
aI00
aI01
aa(lp112
I01
aI00
aI01
aI00
aI01
aI00
aI01
aI00
aI01
aI00
aI01
aI00
aI01
aa(lp113
I01
aI00
aI01
aI00
aI01
aI00
aI01
aI00
aI01
aI00
aI01
aI00
aI01
aa(lp114
I01
aI00
aI00
aI00
aI00
aI00
aI00
aI00
aI00
aI00
aI00
aI00
aI01
aa(lp115
I01
aI00
aI01
aI01
aI01
aI01
aI00
aI01
aI01
aI01
aI01
aI00
aI01
aa(lp116
I01
aI00
aI00
aI00
aI00
aI01
aI00
aI01
aI00
aI00
aI00
aI00
aI01
aa(lp117
I01
aI00
aI01
aI01
aI01
aI01
aI00
aI01
aI01
aI01
aI01
aI00
aI01
aa(lp118
I01
aI00
aI00
aI00
aI00
aI01
aI00
aI01
aI00
aI00
aI00
aI00
aI01
aa(lp119
I01
aI01
aI01
aI01
aI01
aI01
aI01
aI01
aI01
aI01
aI01
aI01
aI01
aasg61
I13
sbsS'layoutText'
p120
(lp121
S'%%%%%%%%%%%%%%%%%%%%%%%%%%%%%%%%%%%%%%%%%%%%'
p122
aS'%     .   ..    ..        ..    ..   .     %'
p123
aS'% % % %%%%%%%%%%%%%% %% %%%%%%%%%%%%%% % % %'
p124
aS'% % % .  .  .  .  .  %%  .  .  .  .  . % % %'
p125
aS'%1%.% %%%%%%%%%%%%%% %% %%%%%%%%%%%%%% %.%2%'
p126
aS'%%%%% .  .  .  .  .      .  .  .  .  . %%%%%'
p127
aS'%o . 5%%%%..%%%%..%%%%%%%%..%%%%..%%%%6   o%'
p128
aS'%%%%% .  .  .  .  .      .  .  .  .  . %%%%%'
p129
aS'%3%.% %%%%%%%%%%%%%% %% %%%%%%%%%%%%%% %.%4%'
p130
aS'% % % .  .  .  .  .  %%  .  .  .  .  . % % %'
p131
aS'% % % %%%%%%%%%%%%%% %% %%%%%%%%%%%%%% % % %'
p132
aS'%     .   ..    ..        ..    ..   .     %'
p133
aS'%%%%%%%%%%%%%%%%%%%%%%%%%%%%%%%%%%%%%%%%%%%%'
p134
asbsS'blueTeamName'
p135
S'baselineTeam'
p136
sS'actions'
p137
(lp138
(I0
S'North'
p139
tp140
a(I1
g139
tp141
a(I2
S'South'
p142
tp143
a(I3
g142
tp144
a(I0
g139
tp145
a(I1
g139
tp146
a(I2
g142
tp147
a(I3
g142
tp148
a(I0
g139
tp149
a(I1
g139
tp150
a(I2
g142
tp151
a(I3
g142
tp152
a(I0
S'East'
p153
tp154
a(I1
S'West'
p155
tp156
a(I2
g153
tp157
a(I3
g155
tp158
a(I0
g153
tp159
a(I1
g155
tp160
a(I2
g153
tp161
a(I3
g155
tp162
a(I0
g153
tp163
a(I1
g155
tp164
a(I2
g153
tp165
a(I3
g155
tp166
a(I0
g153
tp167
a(I1
g155
tp168
a(I2
g153
tp169
a(I3
g155
tp170
a(I0
g153
tp171
a(I1
g155
tp172
a(I2
g153
tp173
a(I3
g155
tp174
a(I0
g153
tp175
a(I1
g155
tp176
a(I2
g153
tp177
a(I3
g155
tp178
a(I0
g153
tp179
a(I1
g155
tp180
a(I2
g153
tp181
a(I3
g155
tp182
a(I0
g153
tp183
a(I1
g155
tp184
a(I2
g153
tp185
a(I3
g155
tp186
a(I0
g153
tp187
a(I1
g155
tp188
a(I2
g153
tp189
a(I3
g155
tp190
a(I0
g153
tp191
a(I1
g155
tp192
a(I2
g153
tp193
a(I3
g155
tp194
a(I0
g153
tp195
a(I1
g155
tp196
a(I2
g153
tp197
a(I3
g155
tp198
a(I0
g153
tp199
a(I1
g155
tp200
a(I2
g153
tp201
a(I3
g155
tp202
a(I0
g153
tp203
a(I1
g155
tp204
a(I2
g153
tp205
a(I3
g155
tp206
a(I0
g153
tp207
a(I1
g155
tp208
a(I2
g153
tp209
a(I3
g155
tp210
a(I0
g153
tp211
a(I1
g155
tp212
a(I2
g153
tp213
a(I3
g155
tp214
a(I0
g153
tp215
a(I1
g155
tp216
a(I2
g153
tp217
a(I3
g155
tp218
a(I0
g153
tp219
a(I1
g155
tp220
a(I2
g153
tp221
a(I3
g155
tp222
a(I0
g155
tp223
a(I1
g155
tp224
a(I2
g155
tp225
a(I3
g155
tp226
a(I0
g155
tp227
a(I1
g155
tp228
a(I2
g155
tp229
a(I3
g155
tp230
a(I0
g155
tp231
a(I1
g155
tp232
a(I2
g155
tp233
a(I3
g155
tp234
a(I0
g155
tp235
a(I1
g155
tp236
a(I2
g155
tp237
a(I3
g153
tp238
a(I0
g153
tp239
a(I1
g155
tp240
a(I2
g155
tp241
a(I3
g153
tp242
a(I0
g153
tp243
a(I1
g155
tp244
a(I2
g155
tp245
a(I3
g153
tp246
a(I0
g153
tp247
a(I1
g155
tp248
a(I2
g153
tp249
a(I3
g153
tp250
a(I0
g153
tp251
a(I1
g139
tp252
a(I2
g153
tp253
a(I3
g153
tp254
a(I0
g153
tp255
a(I1
g139
tp256
a(I2
g153
tp257
a(I3
g153
tp258
a(I0
g153
tp259
a(I1
g139
tp260
a(I2
g153
tp261
a(I3
g153
tp262
a(I0
g153
tp263
a(I1
g155
tp264
a(I2
g153
tp265
a(I3
g153
tp266
a(I0
g153
tp267
a(I1
g155
tp268
a(I2
g153
tp269
a(I3
g155
tp270
a(I0
g153
tp271
a(I1
g155
tp272
a(I2
g153
tp273
a(I3
g155
tp274
a(I0
g153
tp275
a(I1
g155
tp276
a(I2
g153
tp277
a(I3
g155
tp278
a(I0
g153
tp279
a(I1
g155
tp280
a(I2
g139
tp281
a(I3
g155
tp282
a(I0
g153
tp283
a(I1
g155
tp284
a(I2
g139
tp285
a(I3
g155
tp286
a(I0
g153
tp287
a(I1
g155
tp288
a(I2
g139
tp289
a(I3
g155
tp290
a(I0
g153
tp291
a(I1
g155
tp292
a(I2
g139
tp293
a(I3
g155
tp294
a(I0
g155
tp295
a(I1
g155
tp296
a(I2
g153
tp297
a(I3
g139
tp298
a(I0
g155
tp299
a(I1
g155
tp300
a(I2
g155
tp301
a(I3
g139
tp302
a(I0
g155
tp303
a(I1
g155
tp304
a(I2
g142
tp305
a(I3
g139
tp306
a(I0
g155
tp307
a(I1
g155
tp308
a(I2
g142
tp309
a(I3
g139
tp310
a(I0
g155
tp311
a(I1
g155
tp312
a(I2
g142
tp313
a(I3
g153
tp314
a(I0
g142
tp315
a(I1
g155
tp316
a(I2
g142
tp317
a(I3
g153
tp318
a(I0
g142
tp319
a(I1
g155
tp320
a(I2
g153
tp321
a(I3
g153
tp322
a(I0
g153
tp323
a(I1
g155
tp324
a(I2
g153
tp325
a(I3
g139
tp326
a(I0
g153
tp327
a(I1
g155
tp328
a(I2
g153
tp329
a(I3
g139
tp330
a(I0
g153
tp331
a(I1
g155
tp332
a(I2
g153
tp333
a(I3
g155
tp334
a(I0
g153
tp335
a(I1
g155
tp336
a(I2
g153
tp337
a(I3
g155
tp338
a(I0
g153
tp339
a(I1
g155
tp340
a(I2
g153
tp341
a(I3
g155
tp342
a(I0
g153
tp343
a(I1
g155
tp344
a(I2
g153
tp345
a(I3
g139
tp346
a(I0
g155
tp347
a(I1
g155
tp348
a(I2
g153
tp349
a(I3
g139
tp350
a(I0
g155
tp351
a(I1
g155
tp352
a(I2
g153
tp353
a(I3
g153
tp354
a(I0
g155
tp355
a(I1
g155
tp356
a(I2
g153
tp357
a(I3
g153
tp358
a(I0
g155
tp359
a(I1
g155
tp360
a(I2
g153
tp361
a(I3
g155
tp362
a(I0
g139
tp363
a(I1
g155
tp364
a(I2
g153
tp365
a(I3
g155
tp366
a(I0
g139
tp367
a(I1
g155
tp368
a(I2
g153
tp369
a(I3
g142
tp370
a(I0
g139
tp371
a(I1
g155
tp372
a(I2
g153
tp373
a(I3
g142
tp374
a(I0
g153
tp375
a(I1
g155
tp376
a(I2
g153
tp377
a(I3
g153
tp378
a(I0
g153
tp379
a(I1
g155
tp380
a(I2
g153
tp381
a(I3
g153
tp382
a(I0
g153
tp383
a(I1
g155
tp384
a(I2
g153
tp385
a(I3
g153
tp386
a(I0
g153
tp387
a(I1
g155
tp388
a(I2
g153
tp389
a(I3
g153
tp390
a(I0
g153
tp391
a(I1
g155
tp392
a(I2
g139
tp393
a(I3
g142
tp394
a(I0
g153
tp395
a(I1
g155
tp396
a(I2
g139
tp397
a(I3
g142
tp398
a(I0
g153
tp399
a(I1
g139
tp400
a(I2
g155
tp401
a(I3
g153
tp402
a(I0
g153
tp403
a(I1
g139
tp404
a(I2
g153
tp405
a(I3
g153
tp406
a(I0
g153
tp407
a(I1
g139
tp408
a(I2
g139
tp409
a(I3
g153
tp410
a(I0
g153
tp411
a(I1
g155
tp412
a(I2
g139
tp413
a(I3
g153
tp414
a(I0
g153
tp415
a(I1
g155
tp416
a(I2
g155
tp417
a(I3
g153
tp418
a(I0
g153
tp419
a(I1
g155
tp420
a(I2
g153
tp421
a(I3
g153
tp422
a(I0
g153
tp423
a(I1
g155
tp424
a(I2
g139
tp425
a(I3
g153
tp426
a(I0
g153
tp427
a(I1
g155
tp428
a(I2
g139
tp429
a(I3
g153
tp430
a(I0
g153
tp431
a(I1
g155
tp432
a(I2
g155
tp433
a(I3
g153
tp434
a(I0
g153
tp435
a(I1
g155
tp436
a(I2
g155
tp437
a(I3
g153
tp438
a(I0
g153
tp439
a(I1
g155
tp440
a(I2
g155
tp441
a(I3
g153
tp442
a(I0
g153
tp443
a(I1
g155
tp444
a(I2
g155
tp445
a(I3
g139
tp446
a(I0
g153
tp447
a(I1
g155
tp448
a(I2
g155
tp449
a(I3
g139
tp450
a(I0
g153
tp451
a(I1
g155
tp452
a(I2
g142
tp453
a(I3
g155
tp454
a(I0
g153
tp455
a(I1
g155
tp456
a(I2
g155
tp457
a(I3
g155
tp458
a(I0
g153
tp459
a(I1
g155
tp460
a(I2
g142
tp461
a(I3
g155
tp462
a(I0
g142
tp463
a(I1
g155
tp464
a(I2
g155
tp465
a(I3
g155
tp466
a(I0
g142
tp467
a(I1
g155
tp468
a(I2
g155
tp469
a(I3
g155
tp470
a(I0
g142
tp471
a(I1
g155
tp472
a(I2
g155
tp473
a(I3
g142
tp474
a(I0
g142
tp475
a(I1
g155
tp476
a(I2
g155
tp477
a(I3
g142
tp478
a(I0
g153
tp479
a(I1
g155
tp480
a(I2
g155
tp481
a(I3
g155
tp482
a(I0
g153
tp483
a(I1
g155
tp484
a(I2
g139
tp485
a(I3
g155
tp486
a(I0
g153
tp487
a(I1
g155
tp488
a(I2
g155
tp489
a(I3
g155
tp490
a(I0
g153
tp491
a(I1
g155
tp492
a(I2
g139
tp493
a(I3
g155
tp494
a(I0
g153
tp495
a(I1
g155
tp496
a(I2
g155
tp497
a(I3
g155
tp498
a(I0
g153
tp499
a(I1
g142
tp500
a(I2
g155
tp501
a(I3
g155
tp502
a(I0
g153
tp503
a(I1
g142
tp504
a(I2
g155
tp505
a(I3
g139
tp506
a(I0
g153
tp507
a(I1
g155
tp508
a(I2
g155
tp509
a(I3
g139
tp510
a(I0
g153
tp511
a(I1
g155
tp512
a(I2
g155
tp513
a(I3
g153
tp514
a(I0
g153
tp515
a(I1
g155
tp516
a(I2
g155
tp517
a(I3
g153
tp518
a(I0
g142
tp519
a(I1
g155
tp520
a(I2
g139
tp521
a(I3
g153
tp522
a(I0
g142
tp523
a(I1
g155
tp524
a(I2
g139
tp525
a(I3
g153
tp526
a(I0
g153
tp527
a(I1
g155
tp528
a(I2
g155
tp529
a(I3
g153
tp530
a(I0
g153
tp531
a(I1
g155
tp532
a(I2
g155
tp533
a(I3
g142
tp534
a(I0
g153
tp535
a(I1
g155
tp536
a(I2
g155
tp537
a(I3
g142
tp538
a(I0
g153
tp539
a(I1
g155
tp540
a(I2
g155
tp541
a(I3
g153
tp542
a(I0
g153
tp543
a(I1
g155
tp544
a(I2
g155
tp545
a(I3
g153
tp546
a(I0
g139
tp547
a(I1
g155
tp548
a(I2
g155
tp549
a(I3
g153
tp550
a(I0
g139
tp551
a(I1
g155
tp552
a(I2
g155
tp553
a(I3
g153
tp554
a(I0
g139
tp555
a(I1
g155
tp556
a(I2
g155
tp557
a(I3
g153
tp558
a(I0
g139
tp559
a(I1
g155
tp560
a(I2
g155
tp561
a(I3
g153
tp562
a(I0
g155
tp563
a(I1
g155
tp564
a(I2
g155
tp565
a(I3
g139
tp566
a(I0
g155
tp567
a(I1
g139
tp568
a(I2
g155
tp569
a(I3
g139
tp570
a(I0
g155
tp571
a(I1
g139
tp572
a(I2
g155
tp573
a(I3
g139
tp574
a(I0
g155
tp575
a(I1
g153
tp576
a(I2
g155
tp577
a(I3
g139
tp578
a(I0
g155
tp579
a(I1
g155
tp580
a(I2
g155
tp581
a(I3
g155
tp582
a(I0
g155
tp583
a(I1
g155
tp584
a(I2
g155
tp585
a(I3
g155
tp586
a(I0
g155
tp587
a(I1
g155
tp588
a(I2
g139
tp589
a(I3
g155
tp590
a(I0
g155
tp591
a(I1
g142
tp592
a(I2
g139
tp593
a(I3
g155
tp594
a(I0
g155
tp595
a(I1
g142
tp596
a(I2
g155
tp597
a(I3
g155
tp598
a(I0
g155
tp599
a(I1
g142
tp600
a(I2
g155
tp601
a(I3
g155
tp602
a(I0
g155
tp603
a(I1
g139
tp604
a(I2
g142
tp605
a(I3
g155
tp606
a(I0
g155
tp607
a(I1
S'Stop'
p608
tp609
a(I2
g142
tp610
a(I3
g155
tp611
a(I0
g155
tp612
a(I1
g139
tp613
a(I2
g139
tp614
a(I3
g155
tp615
a(I0
g155
tp616
a(I1
g139
tp617
a(I2
g139
tp618
a(I3
g155
tp619
a(I0
g155
tp620
a(I1
g139
tp621
a(I2
g153
tp622
a(I3
g155
tp623
a(I0
g142
tp624
a(I1
g155
tp625
a(I2
g153
tp626
a(I3
g155
tp627
a(I0
g142
tp628
a(I1
g155
tp629
a(I2
g142
tp630
a(I3
g155
tp631
a(I0
g153
tp632
a(I1
g155
tp633
a(I2
g142
tp634
a(I3
g155
tp635
a(I0
g153
tp636
a(I1
g155
tp637
a(I2
g142
tp638
a(I3
g155
tp639
a(I0
g153
tp640
a(I1
g155
tp641
a(I2
g142
tp642
a(I3
g142
tp643
a(I0
g142
tp644
a(I1
g155
tp645
a(I2
g142
tp646
a(I3
g142
tp647
a(I0
g142
tp648
a(I1
g155
tp649
a(I2
g142
tp650
a(I3
g153
tp651
a(I0
g155
tp652
a(I1
g155
tp653
a(I2
g153
tp654
a(I3
g153
tp655
a(I0
g155
tp656
a(I1
g155
tp657
a(I2
g153
tp658
a(I3
g153
tp659
a(I0
g155
tp660
a(I1
g155
tp661
a(I2
g153
tp662
a(I3
g142
tp663
a(I0
g142
tp664
a(I1
g155
tp665
a(I2
g153
tp666
a(I3
g142
tp667
a(I0
g142
tp668
a(I1
g155
tp669
a(I2
g153
tp670
a(I3
g155
tp671
a(I0
g153
tp672
a(I1
g155
tp673
a(I2
g153
tp674
a(I3
g155
tp675
a(I0
g153
tp676
a(I1
g155
tp677
a(I2
g139
tp678
a(I3
g155
tp679
a(I0
g153
tp680
a(I1
g155
tp681
a(I2
g139
tp682
a(I3
g142
tp683
a(I0
g153
tp684
a(I1
g155
tp685
a(I2
g155
tp686
a(I3
g142
tp687
a(I0
g153
tp688
a(I1
g155
tp689
a(I2
g155
tp690
a(I3
g153
tp691
a(I0
g153
tp692
a(I1
g155
tp693
a(I2
g155
tp694
a(I3
g153
tp695
a(I0
g153
tp696
a(I1
g155
tp697
a(I2
g155
tp698
a(I3
g153
tp699
a(I0
g153
tp700
a(I1
g155
tp701
a(I2
g155
tp702
a(I3
g153
tp703
a(I0
g153
tp704
a(I1
g155
tp705
a(I2
g153
tp706
a(I3
g153
tp707
a(I0
g153
tp708
a(I1
g155
tp709
a(I2
g153
tp710
a(I3
g153
tp711
a(I0
g153
tp712
a(I1
g142
tp713
a(I2
g153
tp714
a(I3
g153
tp715
a(I0
g153
tp716
a(I1
g142
tp717
a(I2
g153
tp718
a(I3
g153
tp719
a(I0
g153
tp720
a(I1
g142
tp721
a(I2
g153
tp722
a(I3
g153
tp723
a(I0
g153
tp724
a(I1
g142
tp725
a(I2
g153
tp726
a(I3
g153
tp727
a(I0
g153
tp728
a(I1
g155
tp729
a(I2
g153
tp730
a(I3
g153
tp731
a(I0
g142
tp732
a(I1
g155
tp733
a(I2
g153
tp734
a(I3
g153
tp735
a(I0
g142
tp736
a(I1
g155
tp737
a(I2
g153
tp738
a(I3
g153
tp739
a(I0
g153
tp740
a(I1
g142
tp741
a(I2
g153
tp742
a(I3
g153
tp743
a(I0
g153
tp744
a(I1
g155
tp745
a(I2
g142
tp746
a(I3
g153
tp747
a(I0
g139
tp748
a(I1
g139
tp749
a(I2
g153
tp750
a(I3
g142
tp751
a(I0
g139
tp752
a(I1
g139
tp753
a(I2
g139
tp754
a(I3
g142
tp755
a(I0
g139
tp756
a(I1
g139
tp757
a(I2
g153
tp758
a(I3
g153
tp759
a(I0
g142
tp760
a(I1
g155
tp761
a(I2
g153
tp762
a(I3
g153
tp763
a(I0
g139
tp764
a(I1
g155
tp765
a(I2
g153
tp766
a(I3
g139
tp767
a(I0
g142
tp768
a(I1
g155
tp769
a(I2
g153
tp770
a(I3
g139
tp771
a(I0
g139
tp772
a(I1
g155
tp773
a(I2
g153
tp774
a(I3
g142
tp775
a(I0
g139
tp776
a(I1
g142
tp777
a(I2
g153
tp778
a(I3
g142
tp779
a(I0
g139
tp780
a(I1
g142
tp781
a(I2
g139
tp782
a(I3
g155
tp783
a(I0
g153
tp784
a(I1
g142
tp785
a(I2
g139
tp786
a(I3
g155
tp787
a(I0
g153
tp788
a(I1
g142
tp789
a(I2
g139
tp790
a(I3
g139
tp791
a(I0
g153
tp792
a(I1
g142
tp793
a(I2
g139
tp794
a(I3
g139
tp795
a(I0
g153
tp796
a(I1
g142
tp797
a(I2
g153
tp798
a(I3
g139
tp799
a(I0
g153
tp800
a(I1
g155
tp801
a(I2
g153
tp802
a(I3
g139
tp803
a(I0
g153
tp804
a(I1
g155
tp805
a(I2
g153
tp806
a(I3
g139
tp807
a(I0
g153
tp808
a(I1
g155
tp809
a(I2
g153
tp810
a(I3
g139
tp811
a(I0
g153
tp812
a(I1
g155
tp813
a(I2
g153
tp814
a(I3
g139
tp815
a(I0
g153
tp816
a(I1
g155
tp817
a(I2
g153
tp818
a(I3
g139
tp819
a(I0
g153
tp820
a(I1
g155
tp821
a(I2
g153
tp822
a(I3
g139
tp823
a(I0
g153
tp824
a(I1
g155
tp825
a(I2
g153
tp826
a(I3
g139
tp827
a(I0
g153
tp828
a(I1
g155
tp829
a(I2
g153
tp830
a(I3
g155
tp831
a(I0
g153
tp832
a(I1
g155
tp833
a(I2
g153
tp834
asS'length'
p835
I1200
sS'agents'
p836
(lp837
(igame
Agent
p838
(dp839
S'index'
p840
I0
sba(igame
Agent
p841
(dp842
g840
I0
sba(igame
Agent
p843
(dp844
g840
I0
sba(igame
Agent
p845
(dp846
g840
I0
sbasS'redTeamName'
p847
S'myTeam'
p848
s.